; Function Attrs: nounwind uwtable
define internal void @Abc_Print(i32 noundef range(i32 -1, 2) %0, ptr noundef %1, ...) unnamed_addr #0 {
  %3 = alloca [1 x %struct.__va_list_tag], align 16
  %4 = load i32, ptr @enable_dbg_outs, align 4
  %.not = icmp eq i32 %4, 0
  br i1 %.not, label %30, label %5

5:                                                ; preds = %2
  %6 = tail call i32 (...) @Abc_FrameIsBridgeMode() #22
  %.not8 = icmp eq i32 %6, 0
  br i1 %.not8, label %7, label %12

7:                                                ; preds = %5
  switch i32 %0, label %19 [
    i32 -1, label %8
    i32 0, label %10
  ]

8:                                                ; preds = %7
  %9 = tail call i32 (ptr, ...) @printf(ptr noundef nonnull dereferenceable(1) @.str.12)
  br label %19

10:                                               ; preds = %7
  %11 = tail call i32 (ptr, ...) @printf(ptr noundef nonnull dereferenceable(1) @.str.13)
  br label %19

12:                                               ; preds = %5
  switch i32 %0, label %19 [
    i32 -1, label %13
    i32 0, label %16
  ]

13:                                               ; preds = %12
  %14 = load ptr, ptr @stdout, align 8
  %15 = tail call i32 @Gia_ManToBridgeText(ptr noundef %14, i32 noundef 7, ptr noundef nonnull @.str.12) #22
  br label %19

16:                                               ; preds = %12
  %17 = load ptr, ptr @stdout, align 8
  %18 = tail call i32 @Gia_ManToBridgeText(ptr noundef %17, i32 noundef 9, ptr noundef nonnull @.str.13) #22
  br label %19

19:                                               ; preds = %12, %7, %13, %16, %8, %10
  call void @llvm.va_start.p0(ptr nonnull %3)
  %20 = call i32 (...) @Abc_FrameIsBridgeMode() #22
  %.not9 = icmp eq i32 %20, 0
  br i1 %.not9, label %27, label %21

21:                                               ; preds = %19
  %22 = call ptr @vnsprintf(ptr noundef %1, ptr noundef nonnull %3) #22
  %23 = load ptr, ptr @stdout, align 8
  %24 = call i64 @strlen(ptr noundef nonnull dereferenceable(1) %22) #20
  %25 = trunc i64 %24 to i32
  %26 = call i32 @Gia_ManToBridgeText(ptr noundef %23, i32 noundef %25, ptr noundef nonnull %22) #22
  call void @free(ptr noundef %22) #22
  br label %29

27:                                               ; preds = %19
  %28 = call i32 @vprintf(ptr noundef %1, ptr noundef nonnull %3) #22
  br label %29

29:                                               ; preds = %27, %21
  call void @llvm.va_end.p0(ptr nonnull %3)
  br label %30

30:                                               ; preds = %2, %29
  ret void
}